target datalayout = "e-m:e-p270:32:32-p271:32:32-p272:64:64-i64:64-i128:128-f80:128-n8:16:32:64-S128"
target triple = "x86_64-pc-linux-gnu"

%struct.jv = type { i8, i8, i16, i32, %union.anon }
%union.anon = type { ptr }
%struct.location = type { i32, i32 }
%struct.lexer_param = type { ptr }

@.str = private unnamed_addr constant [11 x i8] c"unexpected\00", align 1
@.str.1 = private unnamed_addr constant [43 x i8] c"jq: error: %s (Unix shell quoting issues?)\00", align 1
@.str.2 = private unnamed_addr constant [14 x i8] c"jq: error: %s\00", align 1
@.str.3 = private unnamed_addr constant [16 x i8] c"Invalid literal\00", align 1

; Function Attrs: nounwind uwtable
define dso_local void @yyerror(ptr noundef %0, ptr noundef %1, ptr noundef %2, ptr noundef %3, ptr noundef %4, ptr noundef %5) #0 {
  %7 = alloca ptr, align 8
  %8 = alloca ptr, align 8
  %9 = alloca ptr, align 8
  %10 = alloca ptr, align 8
  %11 = alloca ptr, align 8
  %12 = alloca ptr, align 8
  store ptr %0, ptr %7, align 8, !tbaa !4
  store ptr %1, ptr %8, align 8, !tbaa !8
  store ptr %2, ptr %9, align 8, !tbaa !10
  store ptr %3, ptr %10, align 8, !tbaa !12
  store ptr %4, ptr %11, align 8, !tbaa !14
  store ptr %5, ptr %12, align 8, !tbaa !16
  %13 = load ptr, ptr %9, align 8, !tbaa !10
  %14 = load i32, ptr %13, align 4, !tbaa !18
  %15 = add nsw i32 %14, 1
  store i32 %15, ptr %13, align 4, !tbaa !18
  %16 = load ptr, ptr %12, align 8, !tbaa !16
  %17 = call ptr @strstr(ptr noundef %16, ptr noundef @.str) #7
  %18 = icmp ne ptr %17, null
  br i1 %18, label %19, label %24

19:                                               ; preds = %6
  %20 = load ptr, ptr %10, align 8, !tbaa !12
  %21 = load ptr, ptr %7, align 8, !tbaa !4
  %22 = load ptr, ptr %12, align 8, !tbaa !16
  %23 = load i64, ptr %21, align 4
  call void (ptr, i64, ptr, ...) @locfile_locate(ptr noundef %20, i64 %23, ptr noundef @.str.1, ptr noundef %22)
  br label %29

24:                                               ; preds = %6
  %25 = load ptr, ptr %10, align 8, !tbaa !12
  %26 = load ptr, ptr %7, align 8, !tbaa !4
  %27 = load ptr, ptr %12, align 8, !tbaa !16
  %28 = load i64, ptr %26, align 4
  call void (ptr, i64, ptr, ...) @locfile_locate(ptr noundef %25, i64 %28, ptr noundef @.str.2, ptr noundef %27)
  br label %29

29:                                               ; preds = %24, %19
  ret void
}

; Function Attrs: nounwind uwtable
define internal i32 @jv_is_valid(i64 %0, ptr %1) #0 {
  %3 = alloca %struct.jv, align 8
  %4 = getelementptr inbounds nuw { i64, ptr }, ptr %3, i32 0, i32 0
  store i64 %0, ptr %4, align 8
  %5 = getelementptr inbounds nuw { i64, ptr }, ptr %3, i32 0, i32 1
  store ptr %1, ptr %5, align 8
  %6 = getelementptr inbounds nuw { i64, ptr }, ptr %3, i32 0, i32 0
  %7 = load i64, ptr %6, align 8
  %8 = getelementptr inbounds nuw { i64, ptr }, ptr %3, i32 0, i32 1
  %9 = load ptr, ptr %8, align 8
  %10 = call i32 @jv_get_kind(i64 %7, ptr %9)
  %11 = icmp ne i32 %10, 0
  %12 = zext i1 %11 to i32
  ret i32 %12
}

; Function Attrs: nounwind uwtable
define dso_local i32 @yylex(ptr noundef %0, ptr noundef %1, ptr noundef %2, ptr noundef %3, ptr noundef %4, ptr noundef %5) #0 {
  %7 = alloca ptr, align 8
  %8 = alloca ptr, align 8
  %9 = alloca ptr, align 8
  %10 = alloca ptr, align 8
  %11 = alloca ptr, align 8
  %12 = alloca ptr, align 8
  %13 = alloca ptr, align 8
  %14 = alloca i32, align 4
  %15 = alloca %struct.jv, align 8
  %16 = alloca %struct.jv, align 8
  %17 = alloca %struct.location, align 4
  %18 = alloca %struct.location, align 4
  %19 = alloca %struct.jv, align 8
  store ptr %0, ptr %7, align 8, !tbaa !20
  store ptr %1, ptr %8, align 8, !tbaa !4
  store ptr %2, ptr %9, align 8, !tbaa !8
  store ptr %3, ptr %10, align 8, !tbaa !10
  store ptr %4, ptr %11, align 8, !tbaa !12
  store ptr %5, ptr %12, align 8, !tbaa !14
  call void @llvm.lifetime.start.p0(i64 8, ptr %13) #8
  %20 = load ptr, ptr %12, align 8, !tbaa !14
  %21 = getelementptr inbounds nuw %struct.lexer_param, ptr %20, i32 0, i32 0
  %22 = load ptr, ptr %21, align 8, !tbaa !22
  store ptr %22, ptr %13, align 8, !tbaa !4
  call void @llvm.lifetime.start.p0(i64 4, ptr %14) #8
  %23 = load ptr, ptr %7, align 8, !tbaa !20
  %24 = load ptr, ptr %8, align 8, !tbaa !4
  %25 = load ptr, ptr %13, align 8, !tbaa !4
  %26 = call i32 @jq_yylex(ptr noundef %23, ptr noundef %24, ptr noundef %25)
  store i32 %26, ptr %14, align 4, !tbaa !18
  %27 = load i32, ptr %14, align 4, !tbaa !18
  %28 = icmp eq i32 %27, 262
  br i1 %28, label %32, label %29

29:                                               ; preds = %6
  %30 = load i32, ptr %14, align 4, !tbaa !18
  %31 = icmp eq i32 %30, 298
  br i1 %31, label %32, label %105

32:                                               ; preds = %29, %6
  %33 = load ptr, ptr %7, align 8, !tbaa !20
  %34 = getelementptr inbounds nuw { i64, ptr }, ptr %33, i32 0, i32 0
  %35 = load i64, ptr %34, align 8
  %36 = getelementptr inbounds nuw { i64, ptr }, ptr %33, i32 0, i32 1
  %37 = load ptr, ptr %36, align 8
  %38 = call i32 @jv_is_valid(i64 %35, ptr %37)
  %39 = icmp ne i32 %38, 0
  br i1 %39, label %105, label %40

40:                                               ; preds = %32
  call void @llvm.lifetime.start.p0(i64 16, ptr %15) #8
  %41 = load ptr, ptr %7, align 8, !tbaa !20
  %42 = getelementptr inbounds nuw { i64, ptr }, ptr %41, i32 0, i32 0
  %43 = load i64, ptr %42, align 8
  %44 = getelementptr inbounds nuw { i64, ptr }, ptr %41, i32 0, i32 1
  %45 = load ptr, ptr %44, align 8
  %46 = call { i64, ptr } @jv_copy(i64 %43, ptr %45)
  %47 = getelementptr inbounds nuw { i64, ptr }, ptr %16, i32 0, i32 0
  %48 = extractvalue { i64, ptr } %46, 0
  store i64 %48, ptr %47, align 8
  %49 = getelementptr inbounds nuw { i64, ptr }, ptr %16, i32 0, i32 1
  %50 = extractvalue { i64, ptr } %46, 1
  store ptr %50, ptr %49, align 8
  %51 = getelementptr inbounds nuw { i64, ptr }, ptr %16, i32 0, i32 0
  %52 = load i64, ptr %51, align 8
  %53 = getelementptr inbounds nuw { i64, ptr }, ptr %16, i32 0, i32 1
  %54 = load ptr, ptr %53, align 8
  %55 = call { i64, ptr } @jv_invalid_get_msg(i64 %52, ptr %54)
  %56 = getelementptr inbounds nuw { i64, ptr }, ptr %15, i32 0, i32 0
  %57 = extractvalue { i64, ptr } %55, 0
  store i64 %57, ptr %56, align 8
  %58 = getelementptr inbounds nuw { i64, ptr }, ptr %15, i32 0, i32 1
  %59 = extractvalue { i64, ptr } %55, 1
  store ptr %59, ptr %58, align 8
  %60 = getelementptr inbounds nuw { i64, ptr }, ptr %15, i32 0, i32 0
  %61 = load i64, ptr %60, align 8
  %62 = getelementptr inbounds nuw { i64, ptr }, ptr %15, i32 0, i32 1
  %63 = load ptr, ptr %62, align 8
  %64 = call i32 @jv_get_kind(i64 %61, ptr %63)
  %65 = icmp eq i32 %64, 5
  br i1 %65, label %66, label %80

66:                                               ; preds = %40
  br label %67

67:                                               ; preds = %66
  call void @llvm.lifetime.start.p0(i64 8, ptr %17) #8
  %68 = load ptr, ptr %8, align 8, !tbaa !4
  call void @llvm.memcpy.p0.p0.i64(ptr align 4 %17, ptr align 4 %68, i64 8, i1 false), !tbaa.struct !24
  %69 = load ptr, ptr %9, align 8, !tbaa !8
  %70 = load ptr, ptr %10, align 8, !tbaa !10
  %71 = load ptr, ptr %11, align 8, !tbaa !12
  %72 = load ptr, ptr %12, align 8, !tbaa !14
  %73 = getelementptr inbounds nuw { i64, ptr }, ptr %15, i32 0, i32 0
  %74 = load i64, ptr %73, align 8
  %75 = getelementptr inbounds nuw { i64, ptr }, ptr %15, i32 0, i32 1
  %76 = load ptr, ptr %75, align 8
  %77 = call ptr @jv_string_value(i64 %74, ptr %76)
  call void @yyerror(ptr noundef %17, ptr noundef %69, ptr noundef %70, ptr noundef %71, ptr noundef %72, ptr noundef %77)
  call void @llvm.lifetime.end.p0(i64 8, ptr %17) #8
  br label %78

78:                                               ; preds = %67
  br label %79

79:                                               ; preds = %78
  br label %89

80:                                               ; preds = %40
  br label %81

81:                                               ; preds = %80
  call void @llvm.lifetime.start.p0(i64 8, ptr %18) #8
  %82 = load ptr, ptr %8, align 8, !tbaa !4
  call void @llvm.memcpy.p0.p0.i64(ptr align 4 %18, ptr align 4 %82, i64 8, i1 false), !tbaa.struct !24
  %83 = load ptr, ptr %9, align 8, !tbaa !8
  %84 = load ptr, ptr %10, align 8, !tbaa !10
  %85 = load ptr, ptr %11, align 8, !tbaa !12
  %86 = load ptr, ptr %12, align 8, !tbaa !14
  call void @yyerror(ptr noundef %18, ptr noundef %83, ptr noundef %84, ptr noundef %85, ptr noundef %86, ptr noundef @.str.3)
  call void @llvm.lifetime.end.p0(i64 8, ptr %18) #8
  br label %87

87:                                               ; preds = %81
  br label %88

88:                                               ; preds = %87
  br label %89

89:                                               ; preds = %88, %79
  %90 = getelementptr inbounds nuw { i64, ptr }, ptr %15, i32 0, i32 0
  %91 = load i64, ptr %90, align 8
  %92 = getelementptr inbounds nuw { i64, ptr }, ptr %15, i32 0, i32 1
  %93 = load ptr, ptr %92, align 8
  call void @jv_free(i64 %91, ptr %93)
  %94 = load ptr, ptr %7, align 8, !tbaa !20
  %95 = getelementptr inbounds nuw { i64, ptr }, ptr %94, i32 0, i32 0
  %96 = load i64, ptr %95, align 8
  %97 = getelementptr inbounds nuw { i64, ptr }, ptr %94, i32 0, i32 1
  %98 = load ptr, ptr %97, align 8
  call void @jv_free(i64 %96, ptr %98)
  %99 = load ptr, ptr %7, align 8, !tbaa !20
  call void @llvm.lifetime.start.p0(i64 16, ptr %19) #8
  %100 = call { i64, ptr } @jv_null()
  %101 = getelementptr inbounds nuw { i64, ptr }, ptr %19, i32 0, i32 0
  %102 = extractvalue { i64, ptr } %100, 0
  store i64 %102, ptr %101, align 8
  %103 = getelementptr inbounds nuw { i64, ptr }, ptr %19, i32 0, i32 1
  %104 = extractvalue { i64, ptr } %100, 1
  store ptr %104, ptr %103, align 8
  call void @llvm.memcpy.p0.p0.i64(ptr align 8 %99, ptr align 8 %19, i64 16, i1 false), !tbaa.struct !25
  call void @llvm.lifetime.end.p0(i64 16, ptr %19) #8
  call void @llvm.lifetime.end.p0(i64 16, ptr %15) #8
  br label %105

105:                                              ; preds = %89, %32, %29
  %106 = load i32, ptr %14, align 4, !tbaa !18
  call void @llvm.lifetime.end.p0(i64 4, ptr %14) #8
  call void @llvm.lifetime.end.p0(i64 8, ptr %13) #8
  ret i32 %106
}