; Function Attrs: nounwind uwtable
define dso_local noundef i32 @yylex(ptr noundef %0, ptr noundef %1, ptr readnone captures(none) %2, ptr noundef captures(none) %3, ptr noundef %4, ptr noundef readonly captures(none) %5) local_unnamed_addr #0 {
  %7 = load ptr, ptr %5, align 8, !tbaa !8
  %8 = tail call i32 @jq_yylex(ptr noundef %0, ptr noundef %1, ptr noundef %7) #10
  switch i32 %8, label %40 [
    i32 298, label %9
    i32 262, label %9
  ]

9:                                                ; preds = %6, %6
  %10 = load i64, ptr %0, align 8
  %11 = getelementptr inbounds nuw i8, ptr %0, i64 8
  %12 = load ptr, ptr %11, align 8
  %13 = tail call i32 @jv_get_kind(i64 %10, ptr %12) #10
  %.not30 = icmp eq i32 %13, 0
  br i1 %.not30, label %14, label %40

14:                                               ; preds = %9
  %15 = load i64, ptr %0, align 8
  %16 = load ptr, ptr %11, align 8
  %17 = tail call { i64, ptr } @jv_copy(i64 %15, ptr %16) #10
  %18 = extractvalue { i64, ptr } %17, 0
  %19 = extractvalue { i64, ptr } %17, 1
  %20 = tail call { i64, ptr } @jv_invalid_get_msg(i64 %18, ptr %19) #10
  %21 = extractvalue { i64, ptr } %20, 0
  %22 = extractvalue { i64, ptr } %20, 1
  %23 = tail call i32 @jv_get_kind(i64 %21, ptr %22) #10
  %24 = icmp eq i32 %23, 5
  %25 = load i64, ptr %1, align 4
  br i1 %24, label %26, label %31

26:                                               ; preds = %14
  %27 = tail call ptr @jv_string_value(i64 %21, ptr %22) #10
  %28 = load i32, ptr %3, align 4, !tbaa !4
  %29 = add nsw i32 %28, 1
  store i32 %29, ptr %3, align 4, !tbaa !4
  %30 = tail call ptr @strstr(ptr noundef nonnull dereferenceable(1) %27, ptr noundef nonnull dereferenceable(1) @.str) #9
  %.not.i = icmp eq ptr %30, null
  %.str.2..str.1.i = select i1 %.not.i, ptr @.str.2, ptr @.str.1
  tail call void (ptr, i64, ptr, ...) @locfile_locate(ptr noundef %4, i64 %25, ptr noundef nonnull %.str.2..str.1.i, ptr noundef nonnull %27) #10
  br label %34

31:                                               ; preds = %14
  %32 = load i32, ptr %3, align 4, !tbaa !4
  %33 = add nsw i32 %32, 1
  store i32 %33, ptr %3, align 4, !tbaa !4
  tail call void (ptr, i64, ptr, ...) @locfile_locate(ptr noundef %4, i64 %25, ptr noundef nonnull @.str.2, ptr noundef nonnull @.str.3) #10
  br label %34

34:                                               ; preds = %31, %26
  tail call void @jv_free(i64 %21, ptr %22) #10
  %35 = load i64, ptr %0, align 8
  %36 = load ptr, ptr %11, align 8
  tail call void @jv_free(i64 %35, ptr %36) #10
  %37 = tail call { i64, ptr } @jv_null() #10
  %38 = extractvalue { i64, ptr } %37, 0
  %39 = extractvalue { i64, ptr } %37, 1
  store i64 %38, ptr %0, align 8
  store ptr %39, ptr %11, align 8, !tbaa !11
  br label %40

40:                                               ; preds = %6, %34, %9
  ret i32 %8
}